; Function Attrs: mustprogress nounwind uwtable
define hidden noundef ptr @_ZN14jmpConUCF2Node20short_branch_versionEv(ptr noundef nonnull align 8 dereferenceable(104) %0) unnamed_addr #3 align 2 {
  %2 = tail call align 8 ptr @llvm.threadlocal.address.p0(ptr align 8 @_ZN6Thread12_thr_currentE)
  %3 = load ptr, ptr %2, align 8
  %4 = getelementptr inbounds i8, ptr %3, i64 1808
  %5 = load ptr, ptr %4, align 8
  %6 = getelementptr inbounds i8, ptr %5, i64 128
  %7 = load ptr, ptr %6, align 8
  %8 = getelementptr inbounds i8, ptr %7, i64 728
  %9 = load ptr, ptr %8, align 8
  %10 = getelementptr inbounds i8, ptr %9, i64 40
  %11 = load ptr, ptr %10, align 8
  %12 = getelementptr inbounds i8, ptr %9, i64 32
  %13 = load ptr, ptr %12, align 8
  %14 = ptrtoint ptr %11 to i64
  %15 = ptrtoint ptr %13 to i64
  %16 = sub i64 %14, %15
  %.not.i.i.i = icmp ult i64 %16, 104
  br i1 %.not.i.i.i, label %19, label %17

17:                                               ; preds = %1
  %18 = getelementptr inbounds i8, ptr %13, i64 104
  store ptr %18, ptr %12, align 8
  br label %_ZN4NodenwEm.exit

19:                                               ; preds = %1
  %20 = tail call noundef ptr @_ZN5Arena4growEmN17AllocFailStrategy13AllocFailEnumE(ptr noundef nonnull align 8 dereferenceable(48) %9, i64 noundef 104, i32 noundef 0) #23
  br label %_ZN4NodenwEm.exit

_ZN4NodenwEm.exit:                                ; preds = %17, %19
  %.0.i.i.i = phi ptr [ %13, %17 ], [ %20, %19 ]
  %21 = icmp ne ptr %.0.i.i.i, null
  tail call void @llvm.assume(i1 %21)
  tail call void @_ZN4NodeC2Ej(ptr noundef nonnull align 8 dereferenceable(52) %.0.i.i.i, i32 noundef 0) #23
  %22 = getelementptr inbounds i8, ptr %.0.i.i.i, i64 52
  store i8 0, ptr %22, align 4
  %23 = getelementptr inbounds i8, ptr %.0.i.i.i, i64 54
  %24 = getelementptr inbounds i8, ptr %.0.i.i.i, i64 56
  %25 = getelementptr inbounds i8, ptr %.0.i.i.i, i64 44
  store i32 26, ptr %25, align 4
  store ptr getelementptr inbounds inrange(-16, 392) (i8, ptr @_ZTV20jmpConUCF2_shortNode, i64 16), ptr %.0.i.i.i, align 8
  store i16 4, ptr %23, align 2
  %26 = getelementptr inbounds i8, ptr %.0.i.i.i, i64 72
  store ptr %26, ptr %24, align 8
  %27 = getelementptr inbounds i8, ptr %0, i64 64
  %28 = load float, ptr %27, align 8
  %29 = getelementptr inbounds i8, ptr %.0.i.i.i, i64 64
  store float %28, ptr %29, align 8
  %30 = getelementptr inbounds i8, ptr %0, i64 68
  %31 = load float, ptr %30, align 4
  %32 = getelementptr inbounds i8, ptr %.0.i.i.i, i64 68
  store float %31, ptr %32, align 4
  tail call void @_ZNK8MachNode17fill_new_machnodeEPS_(ptr noundef nonnull align 8 dereferenceable(64) %0, ptr noundef nonnull %.0.i.i.i) #23
  ret ptr %.0.i.i.i
}